target datalayout = "e-m:e-p270:32:32-p271:32:32-p272:64:64-i64:64-i128:128-f80:128-n8:16:32:64-S128"
target triple = "x86_64-pc-linux-gnu"

%struct.cl_fmap = type { ptr, ptr, ptr, i64, i64, i64, i64, i8, i8, i8, i64, i64, i64, i64, ptr, ptr, ptr, ptr, ptr, ptr, ptr, i8, [16 x i8], i8, [20 x i8], i8, [32 x i8], ptr, ptr }

@.str.3 = private unnamed_addr constant [30 x i8] c"fmap_duplicate: map is NULL!\0A\00", align 1
@.str.4 = private unnamed_addr constant [39 x i8] c"fmap_duplicate: map allocation failed\0A\00", align 1
@.str.5 = private unnamed_addr constant [53 x i8] c"fmap_duplicate: requested offset exceeds end of map\0A\00", align 1
@.str.6 = private unnamed_addr constant [56 x i8] c"fmap_duplicate: internal map error: %zu, %zu; %zu, %zu\0A\00", align 1

; Function Attrs: nounwind uwtable
define ptr @fmap_duplicate(ptr noundef %0, i64 noundef %1, i64 noundef %2, ptr noundef %3) #0 {
  %5 = alloca ptr, align 8
  %6 = alloca i64, align 8
  %7 = alloca i64, align 8
  %8 = alloca ptr, align 8
  %9 = alloca i32, align 4
  %10 = alloca ptr, align 8
  %11 = alloca i64, align 8
  %12 = alloca i64, align 8
  store ptr %0, ptr %5, align 8
  store i64 %1, ptr %6, align 8
  store i64 %2, ptr %7, align 8
  store ptr %3, ptr %8, align 8
  store i32 34, ptr %9, align 4
  store ptr null, ptr %10, align 8
  %13 = load ptr, ptr %5, align 8
  %14 = icmp eq ptr null, %13
  br i1 %14, label %15, label %16

15:                                               ; preds = %4
  call void (ptr, ...) @cli_warnmsg(ptr noundef @.str.3)
  br label %181

16:                                               ; preds = %4
  %17 = call noalias ptr @malloc(i64 noundef 240) #10
  store ptr %17, ptr %10, align 8
  %18 = load ptr, ptr %10, align 8
  %19 = icmp ne ptr %18, null
  br i1 %19, label %21, label %20

20:                                               ; preds = %16
  call void (ptr, ...) @cli_warnmsg(ptr noundef @.str.4)
  br label %181

21:                                               ; preds = %16
  %22 = load ptr, ptr %10, align 8
  %23 = load ptr, ptr %5, align 8
  call void @llvm.memcpy.p0.p0.i64(ptr align 8 %22, ptr align 8 %23, i64 240, i1 false)
  %24 = load i64, ptr %6, align 8
  %25 = load ptr, ptr %5, align 8
  %26 = getelementptr inbounds %struct.cl_fmap, ptr %25, i32 0, i32 13
  %27 = load i64, ptr %26, align 8
  %28 = icmp ugt i64 %24, %27
  br i1 %28, label %29, label %30

29:                                               ; preds = %21
  call void (ptr, ...) @cli_warnmsg(ptr noundef @.str.5)
  br label %181

30:                                               ; preds = %21
  %31 = load i64, ptr %6, align 8
  %32 = icmp ugt i64 %31, 0
  br i1 %32, label %39, label %33

33:                                               ; preds = %30
  %34 = load i64, ptr %7, align 8
  %35 = load ptr, ptr %5, align 8
  %36 = getelementptr inbounds %struct.cl_fmap, ptr %35, i32 0, i32 13
  %37 = load i64, ptr %36, align 8
  %38 = icmp ult i64 %34, %37
  br i1 %38, label %39, label %163

39:                                               ; preds = %33, %30
  %40 = load i64, ptr %6, align 8
  %41 = load ptr, ptr %10, align 8
  %42 = getelementptr inbounds %struct.cl_fmap, ptr %41, i32 0, i32 11
  %43 = load i64, ptr %42, align 8
  %44 = add i64 %43, %40
  store i64 %44, ptr %42, align 8
  %45 = load i64, ptr %7, align 8
  %46 = load ptr, ptr %5, align 8
  %47 = getelementptr inbounds %struct.cl_fmap, ptr %46, i32 0, i32 13
  %48 = load i64, ptr %47, align 8
  %49 = load i64, ptr %6, align 8
  %50 = sub i64 %48, %49
  %51 = icmp ult i64 %45, %50
  br i1 %51, label %52, label %54

52:                                               ; preds = %39
  %53 = load i64, ptr %7, align 8
  br label %60

54:                                               ; preds = %39
  %55 = load ptr, ptr %5, align 8
  %56 = getelementptr inbounds %struct.cl_fmap, ptr %55, i32 0, i32 13
  %57 = load i64, ptr %56, align 8
  %58 = load i64, ptr %6, align 8
  %59 = sub i64 %57, %58
  br label %60

60:                                               ; preds = %54, %52
  %61 = phi i64 [ %53, %52 ], [ %59, %54 ]
  %62 = load ptr, ptr %10, align 8
  %63 = getelementptr inbounds %struct.cl_fmap, ptr %62, i32 0, i32 13
  store i64 %61, ptr %63, align 8
  %64 = load ptr, ptr %10, align 8
  %65 = getelementptr inbounds %struct.cl_fmap, ptr %64, i32 0, i32 11
  %66 = load i64, ptr %65, align 8
  %67 = load ptr, ptr %10, align 8
  %68 = getelementptr inbounds %struct.cl_fmap, ptr %67, i32 0, i32 13
  %69 = load i64, ptr %68, align 8
  %70 = add i64 %66, %69
  %71 = load ptr, ptr %10, align 8
  %72 = getelementptr inbounds %struct.cl_fmap, ptr %71, i32 0, i32 12
  store i64 %70, ptr %72, align 8
  %73 = load ptr, ptr %5, align 8
  %74 = getelementptr inbounds %struct.cl_fmap, ptr %73, i32 0, i32 13
  %75 = load i64, ptr %74, align 8
  %76 = icmp ugt i64 %75, 0
  br i1 %76, label %77, label %133

77:                                               ; preds = %60
  %78 = load ptr, ptr %10, align 8
  %79 = getelementptr inbounds %struct.cl_fmap, ptr %78, i32 0, i32 13
  %80 = load i64, ptr %79, align 8
  %81 = load ptr, ptr %5, align 8
  %82 = getelementptr inbounds %struct.cl_fmap, ptr %81, i32 0, i32 13
  %83 = load i64, ptr %82, align 8
  %84 = icmp ule i64 %80, %83
  br i1 %84, label %85, label %133

85:                                               ; preds = %77
  %86 = load ptr, ptr %10, align 8
  %87 = getelementptr inbounds %struct.cl_fmap, ptr %86, i32 0, i32 11
  %88 = load i64, ptr %87, align 8
  %89 = load ptr, ptr %5, align 8
  %90 = getelementptr inbounds %struct.cl_fmap, ptr %89, i32 0, i32 11
  %91 = load i64, ptr %90, align 8
  %92 = icmp uge i64 %88, %91
  br i1 %92, label %93, label %133

93:                                               ; preds = %85
  %94 = load ptr, ptr %10, align 8
  %95 = getelementptr inbounds %struct.cl_fmap, ptr %94, i32 0, i32 11
  %96 = load i64, ptr %95, align 8
  %97 = load ptr, ptr %10, align 8
  %98 = getelementptr inbounds %struct.cl_fmap, ptr %97, i32 0, i32 13
  %99 = load i64, ptr %98, align 8
  %100 = add i64 %96, %99
  %101 = load ptr, ptr %5, align 8
  %102 = getelementptr inbounds %struct.cl_fmap, ptr %101, i32 0, i32 11
  %103 = load i64, ptr %102, align 8
  %104 = load ptr, ptr %5, align 8
  %105 = getelementptr inbounds %struct.cl_fmap, ptr %104, i32 0, i32 13
  %106 = load i64, ptr %105, align 8
  %107 = add i64 %103, %106
  %108 = icmp ule i64 %100, %107
  br i1 %108, label %109, label %133

109:                                              ; preds = %93
  %110 = load ptr, ptr %10, align 8
  %111 = getelementptr inbounds %struct.cl_fmap, ptr %110, i32 0, i32 11
  %112 = load i64, ptr %111, align 8
  %113 = load ptr, ptr %10, align 8
  %114 = getelementptr inbounds %struct.cl_fmap, ptr %113, i32 0, i32 13
  %115 = load i64, ptr %114, align 8
  %116 = add i64 %112, %115
  %117 = load ptr, ptr %5, align 8
  %118 = getelementptr inbounds %struct.cl_fmap, ptr %117, i32 0, i32 11
  %119 = load i64, ptr %118, align 8
  %120 = icmp uge i64 %116, %119
  br i1 %120, label %121, label %133

121:                                              ; preds = %109
  %122 = load ptr, ptr %10, align 8
  %123 = getelementptr inbounds %struct.cl_fmap, ptr %122, i32 0, i32 11
  %124 = load i64, ptr %123, align 8
  %125 = load ptr, ptr %5, align 8
  %126 = getelementptr inbounds %struct.cl_fmap, ptr %125, i32 0, i32 11
  %127 = load i64, ptr %126, align 8
  %128 = load ptr, ptr %5, align 8
  %129 = getelementptr inbounds %struct.cl_fmap, ptr %128, i32 0, i32 13
  %130 = load i64, ptr %129, align 8
  %131 = add i64 %127, %130
  %132 = icmp ule i64 %124, %131
  br i1 %132, label %156, label %133

133:                                              ; preds = %121, %109, %93, %85, %77, %60
  %134 = load ptr, ptr %5, align 8
  %135 = getelementptr inbounds %struct.cl_fmap, ptr %134, i32 0, i32 11
  %136 = load i64, ptr %135, align 8
  %137 = load ptr, ptr %5, align 8
  %138 = getelementptr inbounds %struct.cl_fmap, ptr %137, i32 0, i32 13
  %139 = load i64, ptr %138, align 8
  %140 = add i64 %136, %139
  store i64 %140, ptr %11, align 8
  %141 = load ptr, ptr %10, align 8
  %142 = getelementptr inbounds %struct.cl_fmap, ptr %141, i32 0, i32 11
  %143 = load i64, ptr %142, align 8
  %144 = load ptr, ptr %10, align 8
  %145 = getelementptr inbounds %struct.cl_fmap, ptr %144, i32 0, i32 13
  %146 = load i64, ptr %145, align 8
  %147 = add i64 %143, %146
  store i64 %147, ptr %12, align 8
  %148 = load ptr, ptr %5, align 8
  %149 = getelementptr inbounds %struct.cl_fmap, ptr %148, i32 0, i32 11
  %150 = load i64, ptr %149, align 8
  %151 = load i64, ptr %11, align 8
  %152 = load ptr, ptr %10, align 8
  %153 = getelementptr inbounds %struct.cl_fmap, ptr %152, i32 0, i32 11
  %154 = load i64, ptr %153, align 8
  %155 = load i64, ptr %12, align 8
  call void (ptr, ...) @cli_warnmsg(ptr noundef @.str.6, i64 noundef %150, i64 noundef %151, i64 noundef %154, i64 noundef %155)
  br label %156

156:                                              ; preds = %133, %121
  %157 = load ptr, ptr %10, align 8
  %158 = getelementptr inbounds %struct.cl_fmap, ptr %157, i32 0, i32 21
  store i8 0, ptr %158, align 8
  %159 = load ptr, ptr %10, align 8
  %160 = getelementptr inbounds %struct.cl_fmap, ptr %159, i32 0, i32 23
  store i8 0, ptr %160, align 1
  %161 = load ptr, ptr %10, align 8
  %162 = getelementptr inbounds %struct.cl_fmap, ptr %161, i32 0, i32 25
  store i8 0, ptr %162, align 2
  br label %163

163:                                              ; preds = %156, %33
  %164 = load ptr, ptr %8, align 8
  %165 = icmp ne ptr null, %164
  br i1 %165, label %166, label %177

166:                                              ; preds = %163
  %167 = load ptr, ptr %8, align 8
  %168 = call ptr @cli_safer_strdup(ptr noundef %167)
  %169 = load ptr, ptr %10, align 8
  %170 = getelementptr inbounds %struct.cl_fmap, ptr %169, i32 0, i32 28
  store ptr %168, ptr %170, align 8
  %171 = load ptr, ptr %10, align 8
  %172 = getelementptr inbounds %struct.cl_fmap, ptr %171, i32 0, i32 28
  %173 = load ptr, ptr %172, align 8
  %174 = icmp eq ptr null, %173
  br i1 %174, label %175, label %176

175:                                              ; preds = %166
  store i32 20, ptr %9, align 4
  br label %181

176:                                              ; preds = %166
  br label %180

177:                                              ; preds = %163
  %178 = load ptr, ptr %10, align 8
  %179 = getelementptr inbounds %struct.cl_fmap, ptr %178, i32 0, i32 28
  store ptr null, ptr %179, align 8
  br label %180

180:                                              ; preds = %177, %176
  store i32 0, ptr %9, align 4
  br label %181

181:                                              ; preds = %180, %175, %29, %20, %15
  %182 = load i32, ptr %9, align 4
  %183 = icmp ne i32 0, %182
  br i1 %183, label %184, label %190

184:                                              ; preds = %181
  %185 = load ptr, ptr %10, align 8
  %186 = icmp ne ptr null, %185
  br i1 %186, label %187, label %189

187:                                              ; preds = %184
  %188 = load ptr, ptr %10, align 8
  call void @free(ptr noundef %188) #8
  store ptr null, ptr %10, align 8
  br label %189

189:                                              ; preds = %187, %184
  br label %190

190:                                              ; preds = %189, %181
  %191 = load ptr, ptr %10, align 8
  ret ptr %191
}