; Function Attrs: nounwind uwtable
define noalias noundef ptr @fmap_duplicate(ptr noundef readonly %0, i64 noundef %1, i64 noundef %2, ptr noundef %3) local_unnamed_addr #0 {
  %5 = icmp eq ptr %0, null
  br i1 %5, label %6, label %7

6:                                                ; preds = %4
  tail call void (ptr, ...) @cli_warnmsg(ptr noundef nonnull @.str.3) #18
  br label %.thread

7:                                                ; preds = %4
  %8 = tail call noalias dereferenceable_or_null(240) ptr @malloc(i64 noundef 240) #20
  %.not = icmp eq ptr %8, null
  br i1 %.not, label %9, label %10

9:                                                ; preds = %7
  tail call void (ptr, ...) @cli_warnmsg(ptr noundef nonnull @.str.4) #18
  br label %.thread

10:                                               ; preds = %7
  tail call void @llvm.memcpy.p0.p0.i64(ptr noundef nonnull align 8 dereferenceable(240) %8, ptr noundef nonnull align 8 dereferenceable(240) %0, i64 240, i1 false)
  %11 = getelementptr inbounds i8, ptr %0, i64 88
  %12 = load i64, ptr %11, align 8
  %13 = icmp ult i64 %12, %1
  br i1 %13, label %14, label %15

14:                                               ; preds = %10
  tail call void (ptr, ...) @cli_warnmsg(ptr noundef nonnull @.str.5) #18
  br label %39

15:                                               ; preds = %10
  %.not71 = icmp ne i64 %1, 0
  %16 = icmp ugt i64 %12, %2
  %or.cond79 = or i1 %.not71, %16
  br i1 %or.cond79, label %17, label %32

17:                                               ; preds = %15
  %18 = getelementptr inbounds i8, ptr %8, i64 72
  %19 = load i64, ptr %18, align 8
  %20 = add i64 %19, %1
  store i64 %20, ptr %18, align 8
  %21 = sub i64 %12, %1
  %. = tail call i64 @llvm.umin.i64(i64 %21, i64 %2)
  %22 = getelementptr inbounds i8, ptr %8, i64 88
  store i64 %., ptr %22, align 8
  %23 = add i64 %20, %.
  %24 = getelementptr inbounds i8, ptr %8, i64 80
  store i64 %23, ptr %24, align 8
  %.not72 = icmp eq i64 %12, 0
  %.not73 = icmp ugt i64 %., %12
  %or.cond = or i1 %.not72, %.not73
  %.phi.trans.insert = getelementptr inbounds i8, ptr %0, i64 72
  %.pre = load i64, ptr %.phi.trans.insert, align 8
  %.not74 = icmp ult i64 %20, %.pre
  %or.cond84 = select i1 %or.cond, i1 true, i1 %.not74
  br i1 %or.cond84, label %._crit_edge, label %25

25:                                               ; preds = %17
  %26 = add i64 %.pre, %12
  %.not75 = icmp ugt i64 %23, %26
  %.not76 = icmp ult i64 %23, %.pre
  %or.cond80 = or i1 %.not76, %.not75
  %.not77 = icmp ugt i64 %20, %26
  %or.cond81 = or i1 %.not77, %or.cond80
  br i1 %or.cond81, label %._crit_edge, label %28

._crit_edge:                                      ; preds = %17, %25
  %27 = add i64 %.pre, %12
  tail call void (ptr, ...) @cli_warnmsg(ptr noundef nonnull @.str.6, i64 noundef %.pre, i64 noundef %27, i64 noundef %20, i64 noundef %23) #18
  br label %28

28:                                               ; preds = %25, %._crit_edge
  %29 = getelementptr inbounds i8, ptr %8, i64 152
  store i8 0, ptr %29, align 8
  %30 = getelementptr inbounds i8, ptr %8, i64 169
  store i8 0, ptr %30, align 1
  %31 = getelementptr inbounds i8, ptr %8, i64 190
  store i8 0, ptr %31, align 2
  br label %32

32:                                               ; preds = %15, %28
  %.not78 = icmp eq ptr %3, null
  br i1 %.not78, label %37, label %33

33:                                               ; preds = %32
  %34 = tail call ptr @cli_safer_strdup(ptr noundef nonnull %3) #18
  %35 = getelementptr inbounds i8, ptr %8, i64 232
  store ptr %34, ptr %35, align 8
  %36 = icmp eq ptr %34, null
  br i1 %36, label %39, label %.thread

37:                                               ; preds = %32
  %38 = getelementptr inbounds i8, ptr %8, i64 232
  store ptr null, ptr %38, align 8
  br label %.thread

39:                                               ; preds = %14, %33
  tail call void @free(ptr noundef nonnull %8) #18
  br label %.thread

.thread:                                          ; preds = %37, %33, %9, %6, %39
  %.1 = phi ptr [ null, %39 ], [ null, %9 ], [ null, %6 ], [ %8, %33 ], [ %8, %37 ]
  ret ptr %.1
}